target datalayout = "e-m:e-p270:32:32-p271:32:32-p272:64:64-i64:64-i128:128-f80:128-n8:16:32:64-S128"
target triple = "x86_64-pc-linux-gnu"

%struct.H5O_iter_rm_t = type { ptr, i32, i32, ptr, ptr, i8 }
%struct.H5O_mesg_operator_t = type { i32, %union.anon.0 }
%union.anon.0 = type { ptr }

@H5O_init_g = external global i8, align 1
@H5_libterm_g = external global i8, align 1
@.str = private unnamed_addr constant [104 x i8] c"generated/home/dtcxzyw/WorkSpace/Projects/compilers/llvm-opt-benchmark/bench/hdf5/hdf5/src/H5Omessage.c\00", align 1
@H5E_CANTINIT_g = external global i64, align 8
@H5E_OHDR_g = external global i64, align 8
@H5E_WRITEERROR_g = external global i64, align 8
@H5E_NOTFOUND_g = external global i64, align 8
@__func__.H5O__msg_remove_real = private unnamed_addr constant [21 x i8] c"H5O__msg_remove_real\00", align 1
@.str.24 = private unnamed_addr constant [24 x i8] c"no write intent on file\00", align 1
@.str.25 = private unnamed_addr constant [30 x i8] c"error iterating over messages\00", align 1
@.str.26 = private unnamed_addr constant [37 x i8] c"unable to remove constant message(s)\00", align 1

; Function Attrs: nounwind uwtable
define i32 @H5O__msg_remove_real(ptr noundef %0, ptr noundef %1, ptr noundef %2, i32 noundef %3, ptr noundef %4, ptr noundef %5, i1 noundef zeroext %6) #0 {
  %8 = alloca ptr, align 8
  %9 = alloca ptr, align 8
  %10 = alloca ptr, align 8
  %11 = alloca i32, align 4
  %12 = alloca ptr, align 8
  %13 = alloca ptr, align 8
  %14 = alloca i8, align 1
  %15 = alloca %struct.H5O_iter_rm_t, align 8
  %16 = alloca %struct.H5O_mesg_operator_t, align 8
  %17 = alloca i32, align 4
  %18 = alloca i8, align 1
  store ptr %0, ptr %8, align 8, !tbaa !22
  store ptr %1, ptr %9, align 8, !tbaa !11
  store ptr %2, ptr %10, align 8, !tbaa !23
  store i32 %3, ptr %11, align 4, !tbaa !8
  store ptr %4, ptr %12, align 8, !tbaa !10
  store ptr %5, ptr %13, align 8, !tbaa !10
  %19 = zext i1 %6 to i8
  store i8 %19, ptr %14, align 1, !tbaa !13
  call void @llvm.lifetime.start.p0(i64 40, ptr %15) #5
  call void @llvm.lifetime.start.p0(i64 16, ptr %16) #5
  call void @llvm.lifetime.start.p0(i64 4, ptr %17) #5
  store i32 0, ptr %17, align 4, !tbaa !8
  call void @llvm.lifetime.start.p0(i64 1, ptr %18) #5
  store i8 0, ptr %18, align 1, !tbaa !13
  %20 = load i8, ptr @H5O_init_g, align 1, !tbaa !13, !range !15, !noundef !16
  %21 = trunc i8 %20 to i1
  br i1 %21, label %26, label %22

22:                                               ; preds = %7
  %23 = load i8, ptr @H5_libterm_g, align 1, !tbaa !13, !range !15, !noundef !16
  %24 = trunc i8 %23 to i1
  %25 = xor i1 %24, true
  br label %26

26:                                               ; preds = %22, %7
  %27 = phi i1 [ true, %7 ], [ %25, %22 ]
  %28 = xor i1 %27, true
  %29 = xor i1 %28, true
  %30 = zext i1 %29 to i32
  %31 = sext i32 %30 to i64
  %32 = call i64 @llvm.expect.i64(i64 %31, i64 1)
  %33 = icmp ne i64 %32, 0
  br i1 %33, label %34, label %123

34:                                               ; preds = %26
  %35 = load ptr, ptr %8, align 8, !tbaa !22
  %36 = call i32 @H5F_get_intent(ptr noundef %35)
  %37 = and i32 %36, 1
  %38 = icmp eq i32 0, %37
  br i1 %38, label %39, label %58

39:                                               ; preds = %34
  br label %40

40:                                               ; preds = %39
  br label %41

41:                                               ; preds = %40
  br label %42

42:                                               ; preds = %41
  %43 = load i64, ptr @H5E_OHDR_g, align 8, !tbaa !17
  %44 = load i64, ptr @H5E_WRITEERROR_g, align 8, !tbaa !17
  %45 = call i32 (ptr, ptr, i32, i64, i64, ptr, ...) @H5E_printf_stack(ptr noundef @.str, ptr noundef @__func__.H5O__msg_remove_real, i32 noundef 1025, i64 noundef %43, i64 noundef %44, ptr noundef @.str.24)
  br label %46

46:                                               ; preds = %42
  br label %47

47:                                               ; preds = %46
  store i8 1, ptr %18, align 1, !tbaa !13
  %48 = load i8, ptr %18, align 1, !tbaa !13, !range !15, !noundef !16
  %49 = trunc i8 %48 to i1
  %50 = zext i1 %49 to i8
  store i8 %50, ptr %18, align 1, !tbaa !13
  br label %51

51:                                               ; preds = %47
  br label %52

52:                                               ; preds = %51
  br label %53

53:                                               ; preds = %52
  store i32 -1, ptr %17, align 4, !tbaa !8
  br label %122

54:                                               ; No predecessors!
  br label %55

55:                                               ; preds = %54
  br label %56

56:                                               ; preds = %55
  br label %57

57:                                               ; preds = %56
  br label %58

58:                                               ; preds = %57, %34
  %59 = load ptr, ptr %8, align 8, !tbaa !22
  %60 = getelementptr inbounds nuw %struct.H5O_iter_rm_t, ptr %15, i32 0, i32 0
  store ptr %59, ptr %60, align 8, !tbaa !79
  %61 = load i32, ptr %11, align 4, !tbaa !8
  %62 = getelementptr inbounds nuw %struct.H5O_iter_rm_t, ptr %15, i32 0, i32 1
  store i32 %61, ptr %62, align 8, !tbaa !81
  %63 = getelementptr inbounds nuw %struct.H5O_iter_rm_t, ptr %15, i32 0, i32 2
  store i32 0, ptr %63, align 4, !tbaa !82
  %64 = load ptr, ptr %12, align 8, !tbaa !10
  %65 = getelementptr inbounds nuw %struct.H5O_iter_rm_t, ptr %15, i32 0, i32 3
  store ptr %64, ptr %65, align 8, !tbaa !83
  %66 = load ptr, ptr %13, align 8, !tbaa !10
  %67 = getelementptr inbounds nuw %struct.H5O_iter_rm_t, ptr %15, i32 0, i32 4
  store ptr %66, ptr %67, align 8, !tbaa !84
  %68 = load i8, ptr %14, align 1, !tbaa !13, !range !15, !noundef !16
  %69 = trunc i8 %68 to i1
  %70 = getelementptr inbounds nuw %struct.H5O_iter_rm_t, ptr %15, i32 0, i32 5
  %71 = zext i1 %69 to i8
  store i8 %71, ptr %70, align 8, !tbaa !85
  %72 = getelementptr inbounds nuw %struct.H5O_mesg_operator_t, ptr %16, i32 0, i32 0
  store i32 1, ptr %72, align 8, !tbaa !86
  %73 = getelementptr inbounds nuw %struct.H5O_mesg_operator_t, ptr %16, i32 0, i32 1
  store ptr @H5O__msg_remove_cb, ptr %73, align 8, !tbaa !69
  %74 = load ptr, ptr %8, align 8, !tbaa !22
  %75 = load ptr, ptr %9, align 8, !tbaa !11
  %76 = load ptr, ptr %10, align 8, !tbaa !23
  %77 = call i32 @H5O__msg_iterate_real(ptr noundef %74, ptr noundef %75, ptr noundef %76, ptr noundef %16, ptr noundef %15)
  %78 = icmp slt i32 %77, 0
  br i1 %78, label %79, label %98

79:                                               ; preds = %58
  br label %80

80:                                               ; preds = %79
  br label %81

81:                                               ; preds = %80
  br label %82

82:                                               ; preds = %81
  %83 = load i64, ptr @H5E_OHDR_g, align 8, !tbaa !17
  %84 = load i64, ptr @H5E_NOTFOUND_g, align 8, !tbaa !17
  %85 = call i32 (ptr, ptr, i32, i64, i64, ptr, ...) @H5E_printf_stack(ptr noundef @.str, ptr noundef @__func__.H5O__msg_remove_real, i32 noundef 1039, i64 noundef %83, i64 noundef %84, ptr noundef @.str.25)
  br label %86

86:                                               ; preds = %82
  br label %87

87:                                               ; preds = %86
  store i8 1, ptr %18, align 1, !tbaa !13
  %88 = load i8, ptr %18, align 1, !tbaa !13, !range !15, !noundef !16
  %89 = trunc i8 %88 to i1
  %90 = zext i1 %89 to i8
  store i8 %90, ptr %18, align 1, !tbaa !13
  br label %91

91:                                               ; preds = %87
  br label %92

92:                                               ; preds = %91
  br label %93

93:                                               ; preds = %92
  store i32 -1, ptr %17, align 4, !tbaa !8
  br label %122

94:                                               ; No predecessors!
  br label %95

95:                                               ; preds = %94
  br label %96

96:                                               ; preds = %95
  br label %97

97:                                               ; preds = %96
  br label %98

98:                                               ; preds = %97, %58
  %99 = getelementptr inbounds nuw %struct.H5O_iter_rm_t, ptr %15, i32 0, i32 2
  %100 = load i32, ptr %99, align 4, !tbaa !82
  %101 = icmp ne i32 %100, 0
  br i1 %101, label %102, label %121

102:                                              ; preds = %98
  br label %103

103:                                              ; preds = %102
  br label %104

104:                                              ; preds = %103
  br label %105

105:                                              ; preds = %104
  %106 = load i64, ptr @H5E_OHDR_g, align 8, !tbaa !17
  %107 = load i64, ptr @H5E_CANTINIT_g, align 8, !tbaa !17
  %108 = call i32 (ptr, ptr, i32, i64, i64, ptr, ...) @H5E_printf_stack(ptr noundef @.str, ptr noundef @__func__.H5O__msg_remove_real, i32 noundef 1043, i64 noundef %106, i64 noundef %107, ptr noundef @.str.26)
  br label %109

109:                                              ; preds = %105
  br label %110

110:                                              ; preds = %109
  store i8 1, ptr %18, align 1, !tbaa !13
  %111 = load i8, ptr %18, align 1, !tbaa !13, !range !15, !noundef !16
  %112 = trunc i8 %111 to i1
  %113 = zext i1 %112 to i8
  store i8 %113, ptr %18, align 1, !tbaa !13
  br label %114

114:                                              ; preds = %110
  br label %115

115:                                              ; preds = %114
  br label %116

116:                                              ; preds = %115
  store i32 -1, ptr %17, align 4, !tbaa !8
  br label %122

117:                                              ; No predecessors!
  br label %118

118:                                              ; preds = %117
  br label %119

119:                                              ; preds = %118
  br label %120

120:                                              ; preds = %119
  br label %121

121:                                              ; preds = %120, %98
  br label %122

122:                                              ; preds = %121, %116, %93, %53
  br label %123

123:                                              ; preds = %122, %26
  %124 = load i32, ptr %17, align 4, !tbaa !8
  call void @llvm.lifetime.end.p0(i64 1, ptr %18) #5
  call void @llvm.lifetime.end.p0(i64 4, ptr %17) #5
  call void @llvm.lifetime.end.p0(i64 16, ptr %16) #5
  call void @llvm.lifetime.end.p0(i64 40, ptr %15) #5
  ret i32 %124
}