; Function Attrs: nounwind uwtable
define range(i32 -1, 1) i32 @H5O__msg_remove_real(ptr noundef %0, ptr noundef %1, ptr noundef captures(address) %2, i32 noundef %3, ptr noundef %4, ptr noundef %5, i1 noundef zeroext %6) local_unnamed_addr #0 {
  %8 = alloca %struct.H5O_iter_rm_t, align 8
  %9 = alloca %struct.H5O_mesg_operator_t, align 8
  %10 = zext i1 %6 to i8
  call void @llvm.lifetime.start.p0(i64 40, ptr nonnull %8) #7
  call void @llvm.lifetime.start.p0(i64 16, ptr nonnull %9) #7
  %11 = load i8, ptr @H5O_init_g, align 1, !tbaa !3, !range !7, !noundef !8
  %12 = trunc nuw i8 %11 to i1
  %13 = load i8, ptr @H5_libterm_g, align 1, !range !7
  %14 = trunc nuw i8 %13 to i1
  %15 = xor i1 %14, true
  %16 = select i1 %12, i1 true, i1 %15
  br i1 %16, label %17, label %44, !prof !9

17:                                               ; preds = %7
  %18 = tail call i32 @H5F_get_intent(ptr noundef %0) #7
  %19 = and i32 %18, 1
  %20 = icmp eq i32 %19, 0
  br i1 %20, label %21, label %25

21:                                               ; preds = %17
  %22 = load i64, ptr @H5E_OHDR_g, align 8, !tbaa !10
  %23 = load i64, ptr @H5E_WRITEERROR_g, align 8, !tbaa !10
  %24 = tail call i32 (ptr, ptr, i32, i64, i64, ptr, ...) @H5E_printf_stack(ptr noundef nonnull @.str, ptr noundef nonnull @__func__.H5O__msg_remove_real, i32 noundef 1025, i64 noundef %22, i64 noundef %23, ptr noundef nonnull @.str.24) #7
  br label %44

25:                                               ; preds = %17
  store ptr %0, ptr %8, align 8, !tbaa !72
  %26 = getelementptr inbounds nuw i8, ptr %8, i64 8
  store i32 %3, ptr %26, align 8, !tbaa !74
  %27 = getelementptr inbounds nuw i8, ptr %8, i64 12
  store i32 0, ptr %27, align 4, !tbaa !75
  %28 = getelementptr inbounds nuw i8, ptr %8, i64 16
  store ptr %4, ptr %28, align 8, !tbaa !76
  %29 = getelementptr inbounds nuw i8, ptr %8, i64 24
  store ptr %5, ptr %29, align 8, !tbaa !77
  %30 = getelementptr inbounds nuw i8, ptr %8, i64 32
  store i8 %10, ptr %30, align 8, !tbaa !78
  store i32 1, ptr %9, align 8, !tbaa !79
  %31 = getelementptr inbounds nuw i8, ptr %9, i64 8
  store ptr @H5O__msg_remove_cb, ptr %31, align 8, !tbaa !62
  %32 = call i32 @H5O__msg_iterate_real(ptr noundef %0, ptr noundef %1, ptr noundef %2, ptr noundef nonnull %9, ptr noundef nonnull %8)
  %33 = icmp slt i32 %32, 0
  br i1 %33, label %34, label %38

34:                                               ; preds = %25
  %35 = load i64, ptr @H5E_OHDR_g, align 8, !tbaa !10
  %36 = load i64, ptr @H5E_NOTFOUND_g, align 8, !tbaa !10
  %37 = call i32 (ptr, ptr, i32, i64, i64, ptr, ...) @H5E_printf_stack(ptr noundef nonnull @.str, ptr noundef nonnull @__func__.H5O__msg_remove_real, i32 noundef 1039, i64 noundef %35, i64 noundef %36, ptr noundef nonnull @.str.25) #7
  br label %44

38:                                               ; preds = %25
  %39 = load i32, ptr %27, align 4, !tbaa !75
  %.not = icmp eq i32 %39, 0
  br i1 %.not, label %44, label %40

40:                                               ; preds = %38
  %41 = load i64, ptr @H5E_OHDR_g, align 8, !tbaa !10
  %42 = load i64, ptr @H5E_CANTINIT_g, align 8, !tbaa !10
  %43 = call i32 (ptr, ptr, i32, i64, i64, ptr, ...) @H5E_printf_stack(ptr noundef nonnull @.str, ptr noundef nonnull @__func__.H5O__msg_remove_real, i32 noundef 1043, i64 noundef %41, i64 noundef %42, ptr noundef nonnull @.str.26) #7
  br label %44

44:                                               ; preds = %21, %34, %40, %38, %7
  %.0 = phi i32 [ -1, %21 ], [ -1, %34 ], [ -1, %40 ], [ 0, %38 ], [ 0, %7 ]
  call void @llvm.lifetime.end.p0(i64 16, ptr nonnull %9) #7
  call void @llvm.lifetime.end.p0(i64 40, ptr nonnull %8) #7
  ret i32 %.0
}